target datalayout = "e-m:e-p270:32:32-p271:32:32-p272:64:64-i64:64-i128:128-f80:128-n8:16:32:64-S128"
target triple = "x86_64-pc-linux-gnu"

@.str.4 = private unnamed_addr constant [4 x i8] c"EXA\00", align 1
@.str.5 = private unnamed_addr constant [5 x i8] c"PETA\00", align 1
@.str.6 = private unnamed_addr constant [5 x i8] c"TERA\00", align 1
@.str.7 = private unnamed_addr constant [5 x i8] c"GIGA\00", align 1
@.str.8 = private unnamed_addr constant [5 x i8] c"MEGA\00", align 1
@.str.9 = private unnamed_addr constant [5 x i8] c"KILO\00", align 1
@.str.10 = private unnamed_addr constant [6 x i8] c"HECTO\00", align 1
@.str.11 = private unnamed_addr constant [5 x i8] c"DECA\00", align 1
@.str.12 = private unnamed_addr constant [5 x i8] c"DECI\00", align 1
@.str.13 = private unnamed_addr constant [6 x i8] c"CENTI\00", align 1
@.str.14 = private unnamed_addr constant [6 x i8] c"MILLI\00", align 1
@.str.15 = private unnamed_addr constant [6 x i8] c"MICRO\00", align 1
@.str.16 = private unnamed_addr constant [5 x i8] c"NANO\00", align 1
@.str.17 = private unnamed_addr constant [5 x i8] c"PICO\00", align 1
@.str.18 = private unnamed_addr constant [6 x i8] c"FEMTO\00", align 1
@.str.19 = private unnamed_addr constant [5 x i8] c"ATTO\00", align 1
@.str.20 = private unnamed_addr constant [25 x i8] c"Unrecognized SI prefix: \00", align 1

; Function Attrs: inlinehint mustprogress nounwind uwtable
define linkonce_odr noundef zeroext i1 @_ZSteqIcSt11char_traitsIcESaIcEEbRKNSt7__cxx1112basic_stringIT_T0_T1_EEPKS5_(ptr noundef nonnull align 8 dereferenceable(32) %0, ptr noundef %1) #3 comdat {
  %3 = alloca ptr, align 8
  %4 = alloca ptr, align 8
  store ptr %0, ptr %3, align 8
  store ptr %1, ptr %4, align 8
  %5 = load ptr, ptr %3, align 8
  %6 = load ptr, ptr %4, align 8
  %7 = call noundef i32 @_ZNKSt7__cxx1112basic_stringIcSt11char_traitsIcESaIcEE7compareEPKc(ptr noundef nonnull align 8 dereferenceable(32) %5, ptr noundef %6) #20
  %8 = icmp eq i32 %7, 0
  ret i1 %8
}

; Function Attrs: mustprogress uwtable
define hidden noundef double @_ZN6Assimp3IFC15ConvertSIPrefixERKNSt7__cxx1112basic_stringIcSt11char_traitsIcESaIcEEE(ptr noundef nonnull align 8 dereferenceable(32) %0) #0 {
  %2 = alloca double, align 8
  %3 = alloca ptr, align 8
  store ptr %0, ptr %3, align 8
  %4 = load ptr, ptr %3, align 8
  %5 = call noundef zeroext i1 @_ZSteqIcSt11char_traitsIcESaIcEEbRKNSt7__cxx1112basic_stringIT_T0_T1_EEPKS5_(ptr noundef nonnull align 8 dereferenceable(32) %4, ptr noundef @.str.4)
  br i1 %5, label %6, label %7

6:                                                ; preds = %1
  store double 0x43ABC16D60000000, ptr %2, align 8
  br label %69

7:                                                ; preds = %1
  %8 = load ptr, ptr %3, align 8
  %9 = call noundef zeroext i1 @_ZSteqIcSt11char_traitsIcESaIcEEbRKNSt7__cxx1112basic_stringIT_T0_T1_EEPKS5_(ptr noundef nonnull align 8 dereferenceable(32) %8, ptr noundef @.str.5)
  br i1 %9, label %10, label %11

10:                                               ; preds = %7
  store double 0x430C6BF520000000, ptr %2, align 8
  br label %69

11:                                               ; preds = %7
  %12 = load ptr, ptr %3, align 8
  %13 = call noundef zeroext i1 @_ZSteqIcSt11char_traitsIcESaIcEEbRKNSt7__cxx1112basic_stringIT_T0_T1_EEPKS5_(ptr noundef nonnull align 8 dereferenceable(32) %12, ptr noundef @.str.6)
  br i1 %13, label %14, label %15

14:                                               ; preds = %11
  store double 0x426D1A94A0000000, ptr %2, align 8
  br label %69

15:                                               ; preds = %11
  %16 = load ptr, ptr %3, align 8
  %17 = call noundef zeroext i1 @_ZSteqIcSt11char_traitsIcESaIcEEbRKNSt7__cxx1112basic_stringIT_T0_T1_EEPKS5_(ptr noundef nonnull align 8 dereferenceable(32) %16, ptr noundef @.str.7)
  br i1 %17, label %18, label %19

18:                                               ; preds = %15
  store double 1.000000e+09, ptr %2, align 8
  br label %69

19:                                               ; preds = %15
  %20 = load ptr, ptr %3, align 8
  %21 = call noundef zeroext i1 @_ZSteqIcSt11char_traitsIcESaIcEEbRKNSt7__cxx1112basic_stringIT_T0_T1_EEPKS5_(ptr noundef nonnull align 8 dereferenceable(32) %20, ptr noundef @.str.8)
  br i1 %21, label %22, label %23

22:                                               ; preds = %19
  store double 1.000000e+06, ptr %2, align 8
  br label %69

23:                                               ; preds = %19
  %24 = load ptr, ptr %3, align 8
  %25 = call noundef zeroext i1 @_ZSteqIcSt11char_traitsIcESaIcEEbRKNSt7__cxx1112basic_stringIT_T0_T1_EEPKS5_(ptr noundef nonnull align 8 dereferenceable(32) %24, ptr noundef @.str.9)
  br i1 %25, label %26, label %27

26:                                               ; preds = %23
  store double 1.000000e+03, ptr %2, align 8
  br label %69

27:                                               ; preds = %23
  %28 = load ptr, ptr %3, align 8
  %29 = call noundef zeroext i1 @_ZSteqIcSt11char_traitsIcESaIcEEbRKNSt7__cxx1112basic_stringIT_T0_T1_EEPKS5_(ptr noundef nonnull align 8 dereferenceable(32) %28, ptr noundef @.str.10)
  br i1 %29, label %30, label %31

30:                                               ; preds = %27
  store double 1.000000e+02, ptr %2, align 8
  br label %69

31:                                               ; preds = %27
  %32 = load ptr, ptr %3, align 8
  %33 = call noundef zeroext i1 @_ZSteqIcSt11char_traitsIcESaIcEEbRKNSt7__cxx1112basic_stringIT_T0_T1_EEPKS5_(ptr noundef nonnull align 8 dereferenceable(32) %32, ptr noundef @.str.11)
  br i1 %33, label %34, label %35

34:                                               ; preds = %31
  store double 1.000000e+00, ptr %2, align 8
  br label %69

35:                                               ; preds = %31
  %36 = load ptr, ptr %3, align 8
  %37 = call noundef zeroext i1 @_ZSteqIcSt11char_traitsIcESaIcEEbRKNSt7__cxx1112basic_stringIT_T0_T1_EEPKS5_(ptr noundef nonnull align 8 dereferenceable(32) %36, ptr noundef @.str.12)
  br i1 %37, label %38, label %39

38:                                               ; preds = %35
  store double 0x3FB99999A0000000, ptr %2, align 8
  br label %69

39:                                               ; preds = %35
  %40 = load ptr, ptr %3, align 8
  %41 = call noundef zeroext i1 @_ZSteqIcSt11char_traitsIcESaIcEEbRKNSt7__cxx1112basic_stringIT_T0_T1_EEPKS5_(ptr noundef nonnull align 8 dereferenceable(32) %40, ptr noundef @.str.13)
  br i1 %41, label %42, label %43

42:                                               ; preds = %39
  store double 0x3F847AE140000000, ptr %2, align 8
  br label %69

43:                                               ; preds = %39
  %44 = load ptr, ptr %3, align 8
  %45 = call noundef zeroext i1 @_ZSteqIcSt11char_traitsIcESaIcEEbRKNSt7__cxx1112basic_stringIT_T0_T1_EEPKS5_(ptr noundef nonnull align 8 dereferenceable(32) %44, ptr noundef @.str.14)
  br i1 %45, label %46, label %47

46:                                               ; preds = %43
  store double 0x3F50624DE0000000, ptr %2, align 8
  br label %69

47:                                               ; preds = %43
  %48 = load ptr, ptr %3, align 8
  %49 = call noundef zeroext i1 @_ZSteqIcSt11char_traitsIcESaIcEEbRKNSt7__cxx1112basic_stringIT_T0_T1_EEPKS5_(ptr noundef nonnull align 8 dereferenceable(32) %48, ptr noundef @.str.15)
  br i1 %49, label %50, label %51

50:                                               ; preds = %47
  store double 0x3EB0C6F7A0000000, ptr %2, align 8
  br label %69

51:                                               ; preds = %47
  %52 = load ptr, ptr %3, align 8
  %53 = call noundef zeroext i1 @_ZSteqIcSt11char_traitsIcESaIcEEbRKNSt7__cxx1112basic_stringIT_T0_T1_EEPKS5_(ptr noundef nonnull align 8 dereferenceable(32) %52, ptr noundef @.str.16)
  br i1 %53, label %54, label %55

54:                                               ; preds = %51
  store double 0x3E112E0BE0000000, ptr %2, align 8
  br label %69

55:                                               ; preds = %51
  %56 = load ptr, ptr %3, align 8
  %57 = call noundef zeroext i1 @_ZSteqIcSt11char_traitsIcESaIcEEbRKNSt7__cxx1112basic_stringIT_T0_T1_EEPKS5_(ptr noundef nonnull align 8 dereferenceable(32) %56, ptr noundef @.str.17)
  br i1 %57, label %58, label %59

58:                                               ; preds = %55
  store double 0x3D71979980000000, ptr %2, align 8
  br label %69

59:                                               ; preds = %55
  %60 = load ptr, ptr %3, align 8
  %61 = call noundef zeroext i1 @_ZSteqIcSt11char_traitsIcESaIcEEbRKNSt7__cxx1112basic_stringIT_T0_T1_EEPKS5_(ptr noundef nonnull align 8 dereferenceable(32) %60, ptr noundef @.str.18)
  br i1 %61, label %62, label %63

62:                                               ; preds = %59
  store double 0x3CD203AFA0000000, ptr %2, align 8
  br label %69

63:                                               ; preds = %59
  %64 = load ptr, ptr %3, align 8
  %65 = call noundef zeroext i1 @_ZSteqIcSt11char_traitsIcESaIcEEbRKNSt7__cxx1112basic_stringIT_T0_T1_EEPKS5_(ptr noundef nonnull align 8 dereferenceable(32) %64, ptr noundef @.str.19)
  br i1 %65, label %66, label %67

66:                                               ; preds = %63
  store double 0x3C32725DE0000000, ptr %2, align 8
  br label %69

67:                                               ; preds = %63
  %68 = load ptr, ptr %3, align 8
  call void @_ZN6Assimp12LogFunctionsINS_11IFCImporterEE8LogErrorIJRA25_KcRKNSt7__cxx1112basic_stringIcSt11char_traitsIcESaIcEEEEEEvDpOT_(ptr noundef nonnull align 1 dereferenceable(25) @.str.20, ptr noundef nonnull align 8 dereferenceable(32) %68)
  store double 1.000000e+00, ptr %2, align 8
  br label %69

69:                                               ; preds = %67, %66, %62, %58, %54, %50, %46, %42, %38, %34, %30, %26, %22, %18, %14, %10, %6
  %70 = load double, ptr %2, align 8
  ret double %70
}