; Function Attrs: mustprogress uwtable
define hidden noundef double @_ZN6Assimp3IFC15ConvertSIPrefixERKNSt7__cxx1112basic_stringIcSt11char_traitsIcESaIcEEE(ptr noundef nonnull align 8 dereferenceable(32) %0) local_unnamed_addr #7 {
  %2 = tail call noundef i32 @_ZNKSt7__cxx1112basic_stringIcSt11char_traitsIcESaIcEE7compareEPKc(ptr noundef nonnull align 8 dereferenceable(32) %0, ptr noundef nonnull @.str.4) #25
  %3 = icmp eq i32 %2, 0
  br i1 %3, label %50, label %4

4:                                                ; preds = %1
  %5 = tail call noundef i32 @_ZNKSt7__cxx1112basic_stringIcSt11char_traitsIcESaIcEE7compareEPKc(ptr noundef nonnull align 8 dereferenceable(32) %0, ptr noundef nonnull @.str.5) #25
  %6 = icmp eq i32 %5, 0
  br i1 %6, label %50, label %7

7:                                                ; preds = %4
  %8 = tail call noundef i32 @_ZNKSt7__cxx1112basic_stringIcSt11char_traitsIcESaIcEE7compareEPKc(ptr noundef nonnull align 8 dereferenceable(32) %0, ptr noundef nonnull @.str.6) #25
  %9 = icmp eq i32 %8, 0
  br i1 %9, label %50, label %10

10:                                               ; preds = %7
  %11 = tail call noundef i32 @_ZNKSt7__cxx1112basic_stringIcSt11char_traitsIcESaIcEE7compareEPKc(ptr noundef nonnull align 8 dereferenceable(32) %0, ptr noundef nonnull @.str.7) #25
  %12 = icmp eq i32 %11, 0
  br i1 %12, label %50, label %13

13:                                               ; preds = %10
  %14 = tail call noundef i32 @_ZNKSt7__cxx1112basic_stringIcSt11char_traitsIcESaIcEE7compareEPKc(ptr noundef nonnull align 8 dereferenceable(32) %0, ptr noundef nonnull @.str.8) #25
  %15 = icmp eq i32 %14, 0
  br i1 %15, label %50, label %16

16:                                               ; preds = %13
  %17 = tail call noundef i32 @_ZNKSt7__cxx1112basic_stringIcSt11char_traitsIcESaIcEE7compareEPKc(ptr noundef nonnull align 8 dereferenceable(32) %0, ptr noundef nonnull @.str.9) #25
  %18 = icmp eq i32 %17, 0
  br i1 %18, label %50, label %19

19:                                               ; preds = %16
  %20 = tail call noundef i32 @_ZNKSt7__cxx1112basic_stringIcSt11char_traitsIcESaIcEE7compareEPKc(ptr noundef nonnull align 8 dereferenceable(32) %0, ptr noundef nonnull @.str.10) #25
  %21 = icmp eq i32 %20, 0
  br i1 %21, label %50, label %22

22:                                               ; preds = %19
  %23 = tail call noundef i32 @_ZNKSt7__cxx1112basic_stringIcSt11char_traitsIcESaIcEE7compareEPKc(ptr noundef nonnull align 8 dereferenceable(32) %0, ptr noundef nonnull @.str.11) #25
  %24 = icmp eq i32 %23, 0
  br i1 %24, label %50, label %25

25:                                               ; preds = %22
  %26 = tail call noundef i32 @_ZNKSt7__cxx1112basic_stringIcSt11char_traitsIcESaIcEE7compareEPKc(ptr noundef nonnull align 8 dereferenceable(32) %0, ptr noundef nonnull @.str.12) #25
  %27 = icmp eq i32 %26, 0
  br i1 %27, label %50, label %28

28:                                               ; preds = %25
  %29 = tail call noundef i32 @_ZNKSt7__cxx1112basic_stringIcSt11char_traitsIcESaIcEE7compareEPKc(ptr noundef nonnull align 8 dereferenceable(32) %0, ptr noundef nonnull @.str.13) #25
  %30 = icmp eq i32 %29, 0
  br i1 %30, label %50, label %31

31:                                               ; preds = %28
  %32 = tail call noundef i32 @_ZNKSt7__cxx1112basic_stringIcSt11char_traitsIcESaIcEE7compareEPKc(ptr noundef nonnull align 8 dereferenceable(32) %0, ptr noundef nonnull @.str.14) #25
  %33 = icmp eq i32 %32, 0
  br i1 %33, label %50, label %34

34:                                               ; preds = %31
  %35 = tail call noundef i32 @_ZNKSt7__cxx1112basic_stringIcSt11char_traitsIcESaIcEE7compareEPKc(ptr noundef nonnull align 8 dereferenceable(32) %0, ptr noundef nonnull @.str.15) #25
  %36 = icmp eq i32 %35, 0
  br i1 %36, label %50, label %37

37:                                               ; preds = %34
  %38 = tail call noundef i32 @_ZNKSt7__cxx1112basic_stringIcSt11char_traitsIcESaIcEE7compareEPKc(ptr noundef nonnull align 8 dereferenceable(32) %0, ptr noundef nonnull @.str.16) #25
  %39 = icmp eq i32 %38, 0
  br i1 %39, label %50, label %40

40:                                               ; preds = %37
  %41 = tail call noundef i32 @_ZNKSt7__cxx1112basic_stringIcSt11char_traitsIcESaIcEE7compareEPKc(ptr noundef nonnull align 8 dereferenceable(32) %0, ptr noundef nonnull @.str.17) #25
  %42 = icmp eq i32 %41, 0
  br i1 %42, label %50, label %43

43:                                               ; preds = %40
  %44 = tail call noundef i32 @_ZNKSt7__cxx1112basic_stringIcSt11char_traitsIcESaIcEE7compareEPKc(ptr noundef nonnull align 8 dereferenceable(32) %0, ptr noundef nonnull @.str.18) #25
  %45 = icmp eq i32 %44, 0
  br i1 %45, label %50, label %46

46:                                               ; preds = %43
  %47 = tail call noundef i32 @_ZNKSt7__cxx1112basic_stringIcSt11char_traitsIcESaIcEE7compareEPKc(ptr noundef nonnull align 8 dereferenceable(32) %0, ptr noundef nonnull @.str.19) #25
  %48 = icmp eq i32 %47, 0
  br i1 %48, label %50, label %49

49:                                               ; preds = %46
  tail call void @_ZN6Assimp12LogFunctionsINS_11IFCImporterEE8LogErrorIJRA25_KcRKNSt7__cxx1112basic_stringIcSt11char_traitsIcESaIcEEEEEEvDpOT_(ptr noundef nonnull align 1 dereferenceable(25) @.str.20, ptr noundef nonnull align 8 dereferenceable(32) %0)
  br label %50

50:                                               ; preds = %46, %43, %40, %37, %34, %31, %28, %25, %22, %19, %16, %13, %10, %7, %4, %1, %49
  %.0 = phi double [ 1.000000e+00, %49 ], [ 0x43ABC16D60000000, %1 ], [ 0x430C6BF520000000, %4 ], [ 0x426D1A94A0000000, %7 ], [ 1.000000e+09, %10 ], [ 1.000000e+06, %13 ], [ 1.000000e+03, %16 ], [ 1.000000e+02, %19 ], [ 1.000000e+00, %22 ], [ 0x3FB99999A0000000, %25 ], [ 0x3F847AE140000000, %28 ], [ 0x3F50624DE0000000, %31 ], [ 0x3EB0C6F7A0000000, %34 ], [ 0x3E112E0BE0000000, %37 ], [ 0x3D71979980000000, %40 ], [ 0x3CD203AFA0000000, %43 ], [ 0x3C32725DE0000000, %46 ]
  ret double %.0
}